target datalayout = "e-m:e-p270:32:32-p271:32:32-p272:64:64-i64:64-i128:128-f80:128-n8:16:32:64-S128"
target triple = "x86_64-pc-linux-gnu"

%struct.SwrContext = type { ptr, i32, ptr, i32, i32, i32, %struct.AVChannelLayout, %struct.AVChannelLayout, %struct.AVChannelLayout, i32, i32, i32, float, float, float, float, float, i32, ptr, i32, %struct.AVChannelLayout, %struct.AVChannelLayout, %struct.AVChannelLayout, i32, i32, %struct.DitherContext, i32, i32, i32, i32, double, i32, double, double, i32, float, float, float, float, float, i64, i32, i32, i32, %struct.AudioData, %struct.AudioData, %struct.AudioData, %struct.AudioData, %struct.AudioData, %struct.AudioData, %struct.AudioData, %struct.AudioData, i32, i32, i32, i32, i64, i64, i32, double, ptr, ptr, ptr, ptr, ptr, [64 x [64 x double]], [64 x [64 x float]], ptr, ptr, ptr, ptr, [64 x [64 x i32]], [64 x [65 x i8]], ptr, ptr, ptr, ptr, ptr }
%struct.AVChannelLayout = type { i32, i32, %union.anon, ptr }
%union.anon = type { i64 }
%struct.DitherContext = type { i32, i32, float, float, i32, float, float, i32, [20 x float], [64 x [40 x float]], %struct.AudioData, %struct.AudioData, i32 }
%struct.AudioData = type { [64 x ptr], ptr, i32, i32, i32, i32, i32 }

; Function Attrs: nounwind uwtable
define internal void @free_temp(ptr noundef %0) #0 {
  %2 = alloca ptr, align 8
  store ptr %0, ptr %2, align 8, !tbaa !96
  %3 = load ptr, ptr %2, align 8, !tbaa !96
  %4 = getelementptr inbounds nuw %struct.AudioData, ptr %3, i32 0, i32 1
  %5 = load ptr, ptr %4, align 8, !tbaa !103
  call void @av_free(ptr noundef %5)
  %6 = load ptr, ptr %2, align 8, !tbaa !96
  call void @llvm.memset.p0.i64(ptr align 8 %6, i8 0, i64 544, i1 false)
  ret void
}

; Function Attrs: nounwind uwtable
define internal void @clear_context(ptr noundef %0) #0 {
  %2 = alloca ptr, align 8
  store ptr %0, ptr %2, align 8, !tbaa !4
  %3 = load ptr, ptr %2, align 8, !tbaa !4
  %4 = getelementptr inbounds nuw %struct.SwrContext, ptr %3, i32 0, i32 52
  store i32 0, ptr %4, align 8, !tbaa !38
  %5 = load ptr, ptr %2, align 8, !tbaa !4
  %6 = getelementptr inbounds nuw %struct.SwrContext, ptr %5, i32 0, i32 53
  store i32 0, ptr %6, align 4, !tbaa !39
  %7 = load ptr, ptr %2, align 8, !tbaa !4
  %8 = getelementptr inbounds nuw %struct.SwrContext, ptr %7, i32 0, i32 54
  store i32 0, ptr %8, align 8, !tbaa !40
  %9 = load ptr, ptr %2, align 8, !tbaa !4
  %10 = getelementptr inbounds nuw %struct.SwrContext, ptr %9, i32 0, i32 44
  %11 = getelementptr inbounds nuw %struct.AudioData, ptr %10, i32 0, i32 0
  %12 = getelementptr inbounds [64 x ptr], ptr %11, i64 0, i64 0
  call void @llvm.memset.p0.i64(ptr align 8 %12, i8 0, i64 512, i1 false)
  %13 = load ptr, ptr %2, align 8, !tbaa !4
  %14 = getelementptr inbounds nuw %struct.SwrContext, ptr %13, i32 0, i32 48
  %15 = getelementptr inbounds nuw %struct.AudioData, ptr %14, i32 0, i32 0
  %16 = getelementptr inbounds [64 x ptr], ptr %15, i64 0, i64 0
  call void @llvm.memset.p0.i64(ptr align 8 %16, i8 0, i64 512, i1 false)
  %17 = load ptr, ptr %2, align 8, !tbaa !4
  %18 = getelementptr inbounds nuw %struct.SwrContext, ptr %17, i32 0, i32 45
  call void @free_temp(ptr noundef %18)
  %19 = load ptr, ptr %2, align 8, !tbaa !4
  %20 = getelementptr inbounds nuw %struct.SwrContext, ptr %19, i32 0, i32 46
  call void @free_temp(ptr noundef %20)
  %21 = load ptr, ptr %2, align 8, !tbaa !4
  %22 = getelementptr inbounds nuw %struct.SwrContext, ptr %21, i32 0, i32 47
  call void @free_temp(ptr noundef %22)
  %23 = load ptr, ptr %2, align 8, !tbaa !4
  %24 = getelementptr inbounds nuw %struct.SwrContext, ptr %23, i32 0, i32 49
  call void @free_temp(ptr noundef %24)
  %25 = load ptr, ptr %2, align 8, !tbaa !4
  %26 = getelementptr inbounds nuw %struct.SwrContext, ptr %25, i32 0, i32 50
  call void @free_temp(ptr noundef %26)
  %27 = load ptr, ptr %2, align 8, !tbaa !4
  %28 = getelementptr inbounds nuw %struct.SwrContext, ptr %27, i32 0, i32 51
  call void @free_temp(ptr noundef %28)
  %29 = load ptr, ptr %2, align 8, !tbaa !4
  %30 = getelementptr inbounds nuw %struct.SwrContext, ptr %29, i32 0, i32 25
  %31 = getelementptr inbounds nuw %struct.DitherContext, ptr %30, i32 0, i32 10
  call void @free_temp(ptr noundef %31)
  %32 = load ptr, ptr %2, align 8, !tbaa !4
  %33 = getelementptr inbounds nuw %struct.SwrContext, ptr %32, i32 0, i32 25
  %34 = getelementptr inbounds nuw %struct.DitherContext, ptr %33, i32 0, i32 11
  call void @free_temp(ptr noundef %34)
  %35 = load ptr, ptr %2, align 8, !tbaa !4
  %36 = getelementptr inbounds nuw %struct.SwrContext, ptr %35, i32 0, i32 7
  call void @av_channel_layout_uninit(ptr noundef %36)
  %37 = load ptr, ptr %2, align 8, !tbaa !4
  %38 = getelementptr inbounds nuw %struct.SwrContext, ptr %37, i32 0, i32 8
  call void @av_channel_layout_uninit(ptr noundef %38)
  %39 = load ptr, ptr %2, align 8, !tbaa !4
  %40 = getelementptr inbounds nuw %struct.SwrContext, ptr %39, i32 0, i32 6
  call void @av_channel_layout_uninit(ptr noundef %40)
  %41 = load ptr, ptr %2, align 8, !tbaa !4
  %42 = getelementptr inbounds nuw %struct.SwrContext, ptr %41, i32 0, i32 60
  call void @swri_audio_convert_free(ptr noundef %42)
  %43 = load ptr, ptr %2, align 8, !tbaa !4
  %44 = getelementptr inbounds nuw %struct.SwrContext, ptr %43, i32 0, i32 61
  call void @swri_audio_convert_free(ptr noundef %44)
  %45 = load ptr, ptr %2, align 8, !tbaa !4
  %46 = getelementptr inbounds nuw %struct.SwrContext, ptr %45, i32 0, i32 62
  call void @swri_audio_convert_free(ptr noundef %46)
  %47 = load ptr, ptr %2, align 8, !tbaa !4
  call void @swri_rematrix_free(ptr noundef %47)
  %48 = load ptr, ptr %2, align 8, !tbaa !4
  %49 = getelementptr inbounds nuw %struct.SwrContext, ptr %48, i32 0, i32 59
  store double 0.000000e+00, ptr %49, align 8, !tbaa !41
  %50 = load ptr, ptr %2, align 8, !tbaa !4
  %51 = getelementptr inbounds nuw %struct.SwrContext, ptr %50, i32 0, i32 55
  store i32 0, ptr %51, align 4, !tbaa !42
  ret void
}