; Function Attrs: nounwind uwtable
define internal fastcc void @clear_context(ptr noundef initializes((10600, 11112), (11120, 11656), (11664, 11688), (11792, 12304), (12336, 12848), (12856, 13392), (13400, 13936), (13944, 14480), (14512, 15024), (15032, 15568), (15576, 16112), (16120, 16156)) %0) unnamed_addr #1 {
  %2 = getelementptr inbounds nuw i8, ptr %0, i64 16144
  store i32 0, ptr %2, align 8, !tbaa !30
  %3 = getelementptr inbounds nuw i8, ptr %0, i64 16148
  store i32 0, ptr %3, align 4, !tbaa !31
  %4 = getelementptr inbounds nuw i8, ptr %0, i64 16152
  store i32 0, ptr %4, align 8, !tbaa !32
  %5 = getelementptr inbounds nuw i8, ptr %0, i64 11792
  tail call void @llvm.memset.p0.i64(ptr noundef nonnull align 8 dereferenceable(512) %5, i8 0, i64 512, i1 false)
  %6 = getelementptr inbounds nuw i8, ptr %0, i64 13968
  tail call void @llvm.memset.p0.i64(ptr noundef nonnull align 8 dereferenceable(512) %6, i8 0, i64 512, i1 false)
  %7 = getelementptr inbounds nuw i8, ptr %0, i64 12336
  %8 = getelementptr inbounds nuw i8, ptr %0, i64 12848
  %9 = load ptr, ptr %8, align 8, !tbaa !33
  tail call void @av_free(ptr noundef %9) #12
  tail call void @llvm.memset.p0.i64(ptr noundef nonnull align 8 dereferenceable(544) %7, i8 0, i64 544, i1 false)
  %10 = getelementptr inbounds nuw i8, ptr %0, i64 12880
  %11 = getelementptr inbounds nuw i8, ptr %0, i64 13392
  %12 = load ptr, ptr %11, align 8, !tbaa !33
  tail call void @av_free(ptr noundef %12) #12
  tail call void @llvm.memset.p0.i64(ptr noundef nonnull align 8 dereferenceable(544) %10, i8 0, i64 544, i1 false)
  %13 = getelementptr inbounds nuw i8, ptr %0, i64 13424
  %14 = getelementptr inbounds nuw i8, ptr %0, i64 13936
  %15 = load ptr, ptr %14, align 8, !tbaa !33
  tail call void @av_free(ptr noundef %15) #12
  tail call void @llvm.memset.p0.i64(ptr noundef nonnull align 8 dereferenceable(544) %13, i8 0, i64 544, i1 false)
  %16 = getelementptr inbounds nuw i8, ptr %0, i64 14512
  %17 = getelementptr inbounds nuw i8, ptr %0, i64 15024
  %18 = load ptr, ptr %17, align 8, !tbaa !33
  tail call void @av_free(ptr noundef %18) #12
  tail call void @llvm.memset.p0.i64(ptr noundef nonnull align 8 dereferenceable(544) %16, i8 0, i64 544, i1 false)
  %19 = getelementptr inbounds nuw i8, ptr %0, i64 15056
  %20 = getelementptr inbounds nuw i8, ptr %0, i64 15568
  %21 = load ptr, ptr %20, align 8, !tbaa !33
  tail call void @av_free(ptr noundef %21) #12
  tail call void @llvm.memset.p0.i64(ptr noundef nonnull align 8 dereferenceable(544) %19, i8 0, i64 544, i1 false)
  %22 = getelementptr inbounds nuw i8, ptr %0, i64 15600
  %23 = getelementptr inbounds nuw i8, ptr %0, i64 16112
  %24 = load ptr, ptr %23, align 8, !tbaa !33
  tail call void @av_free(ptr noundef %24) #12
  tail call void @llvm.memset.p0.i64(ptr noundef nonnull align 8 dereferenceable(544) %22, i8 0, i64 544, i1 false)
  %25 = getelementptr inbounds nuw i8, ptr %0, i64 10600
  %26 = getelementptr inbounds nuw i8, ptr %0, i64 11112
  %27 = load ptr, ptr %26, align 8, !tbaa !33
  tail call void @av_free(ptr noundef %27) #12
  tail call void @llvm.memset.p0.i64(ptr noundef nonnull align 8 dereferenceable(544) %25, i8 0, i64 544, i1 false)
  %28 = getelementptr inbounds nuw i8, ptr %0, i64 11144
  %29 = getelementptr inbounds nuw i8, ptr %0, i64 11656
  %30 = load ptr, ptr %29, align 8, !tbaa !33
  tail call void @av_free(ptr noundef %30) #12
  tail call void @llvm.memset.p0.i64(ptr noundef nonnull align 8 dereferenceable(544) %28, i8 0, i64 544, i1 false)
  %31 = getelementptr inbounds nuw i8, ptr %0, i64 64
  tail call void @av_channel_layout_uninit(ptr noundef nonnull %31) #12
  %32 = getelementptr inbounds nuw i8, ptr %0, i64 88
  tail call void @av_channel_layout_uninit(ptr noundef nonnull %32) #12
  %33 = getelementptr inbounds nuw i8, ptr %0, i64 40
  tail call void @av_channel_layout_uninit(ptr noundef nonnull %33) #12
  %34 = getelementptr inbounds nuw i8, ptr %0, i64 16192
  tail call void @swri_audio_convert_free(ptr noundef nonnull %34) #12
  %35 = getelementptr inbounds nuw i8, ptr %0, i64 16200
  tail call void @swri_audio_convert_free(ptr noundef nonnull %35) #12
  %36 = getelementptr inbounds nuw i8, ptr %0, i64 16208
  tail call void @swri_audio_convert_free(ptr noundef nonnull %36) #12
  tail call void @swri_rematrix_free(ptr noundef %0) #12
  %37 = getelementptr inbounds nuw i8, ptr %0, i64 16184
  store double 0.000000e+00, ptr %37, align 8, !tbaa !34
  %38 = getelementptr inbounds nuw i8, ptr %0, i64 16156
  store i32 0, ptr %38, align 4, !tbaa !35
  ret void
}